target datalayout = "e-m:e-p270:32:32-p271:32:32-p272:64:64-i64:64-i128:128-f80:128-n8:16:32:64-S128"
target triple = "x86_64-pc-linux-gnu"

%struct.TIDBitmap = type { i32, ptr, i32, ptr, i32, i32, i32, i32, i32, i32, %struct.PagetableEntry, ptr, ptr, i64, i64, i64, i64, ptr }
%struct.PagetableEntry = type { i32, i8, i8, i8, [5 x i64] }
%struct.Node = type { i32 }

@CurrentMemoryContext = external global ptr, align 8

; Function Attrs: nounwind uwtable
define dso_local i32 @tbm_calculate_entries(i64 noundef %0) #0 {
  %2 = alloca i64, align 8
  %3 = alloca i64, align 8
  store i64 %0, ptr %2, align 8
  call void @llvm.lifetime.start.p0(i64 8, ptr %3) #9
  %4 = load i64, ptr %2, align 8
  %5 = udiv i64 %4, 64
  store i64 %5, ptr %3, align 8
  %6 = load i64, ptr %3, align 8
  %7 = icmp ult i64 %6, 2147483646
  br i1 %7, label %8, label %10

8:                                                ; preds = %1
  %9 = load i64, ptr %3, align 8
  br label %11

10:                                               ; preds = %1
  br label %11

11:                                               ; preds = %10, %8
  %12 = phi i64 [ %9, %8 ], [ 2147483646, %10 ]
  store i64 %12, ptr %3, align 8
  %13 = load i64, ptr %3, align 8
  %14 = icmp ugt i64 %13, 16
  br i1 %14, label %15, label %17

15:                                               ; preds = %11
  %16 = load i64, ptr %3, align 8
  br label %18

17:                                               ; preds = %11
  br label %18

18:                                               ; preds = %17, %15
  %19 = phi i64 [ %16, %15 ], [ 16, %17 ]
  store i64 %19, ptr %3, align 8
  %20 = load i64, ptr %3, align 8
  %21 = trunc i64 %20 to i32
  call void @llvm.lifetime.end.p0(i64 8, ptr %3) #9
  ret i32 %21
}

; Function Attrs: inlinehint nounwind uwtable
define internal ptr @newNode(i64 noundef %0, i32 noundef %1) #2 {
  %3 = alloca i64, align 8
  %4 = alloca i32, align 4
  %5 = alloca ptr, align 8
  store i64 %0, ptr %3, align 8
  store i32 %1, ptr %4, align 4
  call void @llvm.lifetime.start.p0(i64 8, ptr %5) #9
  %6 = load i64, ptr %3, align 8
  %7 = call ptr @palloc0(i64 noundef %6)
  store ptr %7, ptr %5, align 8
  %8 = load i32, ptr %4, align 4
  %9 = load ptr, ptr %5, align 8
  %10 = getelementptr inbounds nuw %struct.Node, ptr %9, i32 0, i32 0
  store i32 %8, ptr %10, align 4
  %11 = load ptr, ptr %5, align 8
  call void @llvm.lifetime.end.p0(i64 8, ptr %5) #9
  ret ptr %11
}

; Function Attrs: nounwind uwtable
define dso_local ptr @tbm_create(i64 noundef %0, ptr noundef %1) #0 {
  %3 = alloca i64, align 8
  %4 = alloca ptr, align 8
  %5 = alloca ptr, align 8
  store i64 %0, ptr %3, align 8
  store ptr %1, ptr %4, align 8
  call void @llvm.lifetime.start.p0(i64 8, ptr %5) #9
  %6 = call ptr @newNode(i64 noundef 160, i32 noundef 477)
  store ptr %6, ptr %5, align 8
  %7 = load ptr, ptr @CurrentMemoryContext, align 8
  %8 = load ptr, ptr %5, align 8
  %9 = getelementptr inbounds nuw %struct.TIDBitmap, ptr %8, i32 0, i32 1
  store ptr %7, ptr %9, align 8
  %10 = load ptr, ptr %5, align 8
  %11 = getelementptr inbounds nuw %struct.TIDBitmap, ptr %10, i32 0, i32 2
  store i32 0, ptr %11, align 8
  %12 = load i64, ptr %3, align 8
  %13 = call i32 @tbm_calculate_entries(i64 noundef %12)
  %14 = load ptr, ptr %5, align 8
  %15 = getelementptr inbounds nuw %struct.TIDBitmap, ptr %14, i32 0, i32 5
  store i32 %13, ptr %15, align 4
  %16 = load ptr, ptr %5, align 8
  %17 = getelementptr inbounds nuw %struct.TIDBitmap, ptr %16, i32 0, i32 9
  store i32 0, ptr %17, align 4
  %18 = load ptr, ptr %4, align 8
  %19 = load ptr, ptr %5, align 8
  %20 = getelementptr inbounds nuw %struct.TIDBitmap, ptr %19, i32 0, i32 17
  store ptr %18, ptr %20, align 8
  %21 = load ptr, ptr %5, align 8
  %22 = getelementptr inbounds nuw %struct.TIDBitmap, ptr %21, i32 0, i32 13
  store i64 0, ptr %22, align 8
  %23 = load ptr, ptr %5, align 8
  %24 = getelementptr inbounds nuw %struct.TIDBitmap, ptr %23, i32 0, i32 14
  store i64 0, ptr %24, align 8
  %25 = load ptr, ptr %5, align 8
  %26 = getelementptr inbounds nuw %struct.TIDBitmap, ptr %25, i32 0, i32 15
  store i64 0, ptr %26, align 8
  %27 = load ptr, ptr %5, align 8
  %28 = getelementptr inbounds nuw %struct.TIDBitmap, ptr %27, i32 0, i32 16
  store i64 0, ptr %28, align 8
  %29 = load ptr, ptr %5, align 8
  call void @llvm.lifetime.end.p0(i64 8, ptr %5) #9
  ret ptr %29
}