; Function Attrs: nounwind uwtable
define dso_local noundef ptr @tbm_create(i64 noundef %0, ptr noundef %1) local_unnamed_addr #0 {
  %3 = tail call noundef ptr @palloc0(i64 noundef 160) #14
  store i32 477, ptr %3, align 4
  %4 = load ptr, ptr @CurrentMemoryContext, align 8
  %5 = getelementptr inbounds nuw i8, ptr %3, i64 8
  store ptr %4, ptr %5, align 8
  %6 = getelementptr inbounds nuw i8, ptr %3, i64 16
  store i32 0, ptr %6, align 8
  %7 = lshr i64 %0, 6
  %8 = tail call i64 @llvm.umin.i64(i64 %7, i64 2147483646)
  %9 = tail call i64 @llvm.umax.i64(i64 %8, i64 16)
  %10 = trunc nuw nsw i64 %9 to i32
  %11 = getelementptr inbounds nuw i8, ptr %3, i64 36
  store i32 %10, ptr %11, align 4
  %12 = getelementptr inbounds nuw i8, ptr %3, i64 52
  store i32 0, ptr %12, align 4
  %13 = getelementptr inbounds nuw i8, ptr %3, i64 152
  store ptr %1, ptr %13, align 8
  %14 = getelementptr inbounds nuw i8, ptr %3, i64 120
  tail call void @llvm.memset.p0.i64(ptr noundef nonnull align 8 dereferenceable(32) %14, i8 0, i64 32, i1 false)
  ret ptr %3
}